target datalayout = "e-m:e-p270:32:32-p271:32:32-p272:64:64-i64:64-i128:128-f80:128-n8:16:32:64-S128"
target triple = "x86_64-pc-linux-gnu"

%struct.PutBitContext = type { i32, i32, ptr, ptr, ptr }

@.str.39 = private unnamed_addr constant [28 x i8] c"alignment_bit_equal_to_zero\00", align 1

; Function Attrs: inlinehint nounwind uwtable
define internal i32 @put_bits_count(ptr noundef %0) #5 {
  %2 = alloca ptr, align 8
  store ptr %0, ptr %2, align 8, !tbaa !50
  %3 = load ptr, ptr %2, align 8, !tbaa !50
  %4 = getelementptr inbounds nuw %struct.PutBitContext, ptr %3, i32 0, i32 3
  %5 = load ptr, ptr %4, align 8, !tbaa !225
  %6 = load ptr, ptr %2, align 8, !tbaa !50
  %7 = getelementptr inbounds nuw %struct.PutBitContext, ptr %6, i32 0, i32 2
  %8 = load ptr, ptr %7, align 8, !tbaa !227
  %9 = ptrtoint ptr %5 to i64
  %10 = ptrtoint ptr %8 to i64
  %11 = sub i64 %9, %10
  %12 = mul nsw i64 %11, 8
  %13 = add nsw i64 %12, 32
  %14 = load ptr, ptr %2, align 8, !tbaa !50
  %15 = getelementptr inbounds nuw %struct.PutBitContext, ptr %14, i32 0, i32 1
  %16 = load i32, ptr %15, align 4, !tbaa !228
  %17 = sext i32 %16 to i64
  %18 = sub nsw i64 %13, %17
  %19 = trunc i64 %18 to i32
  ret i32 %19
}

; Function Attrs: nounwind uwtable
define internal i32 @cbs_apv_write_byte_alignment(ptr noundef %0, ptr noundef %1) #0 {
  %3 = alloca i32, align 4
  %4 = alloca ptr, align 8
  %5 = alloca ptr, align 8
  %6 = alloca i32, align 4
  %7 = alloca i32, align 4
  %8 = alloca i32, align 4
  %9 = alloca i32, align 4
  store ptr %0, ptr %4, align 8, !tbaa !4
  store ptr %1, ptr %5, align 8, !tbaa !50
  call void @llvm.lifetime.start.p0(i64 4, ptr %6) #8
  br label %10

10:                                               ; preds = %40, %2
  %11 = load ptr, ptr %5, align 8, !tbaa !50
  %12 = call i32 @put_bits_count(ptr noundef %11)
  %13 = srem i32 %12, 8
  %14 = icmp ne i32 %13, 0
  br i1 %14, label %15, label %41

15:                                               ; preds = %10
  br label %16

16:                                               ; preds = %15
  call void @llvm.lifetime.start.p0(i64 4, ptr %7) #8
  store i32 0, ptr %7, align 4, !tbaa !11
  br label %17

17:                                               ; preds = %16
  call void @llvm.lifetime.start.p0(i64 4, ptr %8) #8
  %18 = load i32, ptr %7, align 4, !tbaa !11
  store i32 %18, ptr %8, align 4, !tbaa !11
  br label %19

19:                                               ; preds = %17
  %20 = load ptr, ptr %4, align 8, !tbaa !4
  %21 = load ptr, ptr %5, align 8, !tbaa !50
  %22 = load i32, ptr %8, align 4, !tbaa !11
  %23 = call i32 @ff_cbs_write_unsigned(ptr noundef %20, ptr noundef %21, i32 noundef 1, ptr noundef @.str.39, ptr noundef null, i32 noundef %22, i32 noundef 0, i32 noundef 0)
  store i32 %23, ptr %6, align 4, !tbaa !11
  %24 = load i32, ptr %6, align 4, !tbaa !11
  %25 = icmp slt i32 %24, 0
  br i1 %25, label %26, label %28

26:                                               ; preds = %19
  %27 = load i32, ptr %6, align 4, !tbaa !11
  store i32 %27, ptr %3, align 4
  store i32 1, ptr %9, align 4
  br label %31

28:                                               ; preds = %19
  br label %29

29:                                               ; preds = %28
  br label %30

30:                                               ; preds = %29
  store i32 0, ptr %9, align 4
  br label %31

31:                                               ; preds = %30, %26
  call void @llvm.lifetime.end.p0(i64 4, ptr %8) #8
  %32 = load i32, ptr %9, align 4
  switch i32 %32, label %36 [
    i32 0, label %33
  ]

33:                                               ; preds = %31
  br label %34

34:                                               ; preds = %33
  br label %35

35:                                               ; preds = %34
  store i32 0, ptr %9, align 4
  br label %36

36:                                               ; preds = %35, %31
  call void @llvm.lifetime.end.p0(i64 4, ptr %7) #8
  %37 = load i32, ptr %9, align 4
  switch i32 %37, label %42 [
    i32 0, label %38
  ]

38:                                               ; preds = %36
  br label %39

39:                                               ; preds = %38
  br label %40

40:                                               ; preds = %39
  br label %10, !llvm.loop !224

41:                                               ; preds = %10
  store i32 0, ptr %3, align 4
  store i32 1, ptr %9, align 4
  br label %42

42:                                               ; preds = %41, %36
  call void @llvm.lifetime.end.p0(i64 4, ptr %6) #8
  %43 = load i32, ptr %3, align 4
  ret i32 %43
}