; Function Attrs: nounwind uwtable
define internal fastcc range(i32 -2147483648, 1) i32 @cbs_apv_write_byte_alignment(ptr noundef %0, ptr noundef %1) unnamed_addr #0 {
  %3 = getelementptr inbounds nuw i8, ptr %1, i64 4
  br label %4

4:                                                ; preds = %7, %2
  %5 = load i32, ptr %3, align 4, !tbaa !139
  %reass.sub.i = sub i32 0, %5
  %6 = and i32 %reass.sub.i, 7
  %.not = icmp eq i32 %6, 0
  br i1 %.not, label %10, label %7

7:                                                ; preds = %4
  %8 = tail call i32 @ff_cbs_write_unsigned(ptr noundef %0, ptr noundef nonnull %1, i32 noundef 1, ptr noundef nonnull @.str.39, ptr noundef null, i32 noundef 0, i32 noundef 0, i32 noundef 0) #7
  %9 = icmp sgt i32 %8, -1
  br i1 %9, label %4, label %10, !llvm.loop !183

10:                                               ; preds = %4, %7
  %.2 = phi i32 [ %8, %7 ], [ 0, %4 ]
  ret i32 %.2
}